; Function Attrs: alwaysinline norecurse nounwind ssp uwtable
define internal void @"_ZN6open3d4core15ParallelForCPU_IZNS0_6kernelL27LaunchAdvancedIndexerKernelIZNS2_11IndexGetCPUERKNS0_6TensorERS4_RKSt6vectorIS4_SaIS4_EERKNS0_10SizeVectorESF_E3$_0EEvRKNS0_15AdvancedIndexerERKT_EUllE_EEvRKNS0_6DeviceElSM_.omp_outlined"(ptr noalias noundef readonly captures(none) %0, ptr noalias readnone captures(none) %1, ptr noundef nonnull readonly align 8 captures(none) dereferenceable(8) %2, ptr noundef nonnull readonly align 8 captures(none) dereferenceable(16) %3) #24 personality ptr @__gxx_personality_v0 {
  %5 = alloca i64, align 8
  %6 = alloca i64, align 8
  %7 = alloca i64, align 8
  %8 = alloca i32, align 4
  %9 = load i64, ptr %2, align 8, !tbaa !9
  %10 = icmp sgt i64 %9, 0
  br i1 %10, label %11, label %27

11:                                               ; preds = %4
  %12 = add nsw i64 %9, -1
  call void @llvm.lifetime.start.p0(i64 8, ptr nonnull %5) #25
  store i64 0, ptr %5, align 8, !tbaa !9
  call void @llvm.lifetime.start.p0(i64 8, ptr nonnull %6) #25
  store i64 %12, ptr %6, align 8, !tbaa !9
  call void @llvm.lifetime.start.p0(i64 8, ptr nonnull %7) #25
  store i64 1, ptr %7, align 8, !tbaa !9
  call void @llvm.lifetime.start.p0(i64 4, ptr nonnull %8) #25
  store i32 0, ptr %8, align 4, !tbaa !70
  %13 = load i32, ptr %0, align 4, !tbaa !70
  call void @__kmpc_for_static_init_8(ptr nonnull @1, i32 %13, i32 34, ptr nonnull %8, ptr nonnull %5, ptr nonnull %6, ptr nonnull %7, i64 1, i64 1)
  %14 = load i64, ptr %6, align 8, !tbaa !9
  %15 = call i64 @llvm.smin.i64(i64 %14, i64 %12)
  store i64 %15, ptr %6, align 8, !tbaa !9
  %16 = load i64, ptr %5, align 8, !tbaa !9
  %.not14 = icmp sgt i64 %16, %15
  br i1 %.not14, label %._crit_edge, label %.lr.ph

.lr.ph:                                           ; preds = %11
  %17 = getelementptr inbounds nuw i8, ptr %3, i64 8
  br label %18

18:                                               ; preds = %.lr.ph, %24
  %.015 = phi i64 [ %16, %.lr.ph ], [ %25, %24 ]
  %19 = load ptr, ptr %17, align 8, !tbaa !658
  %20 = load ptr, ptr %3, align 8, !tbaa !660
  %21 = invoke noundef ptr @_ZNK6open3d4core15AdvancedIndexer11GetInputPtrEl(ptr noundef nonnull align 8 dereferenceable(952) %20, i64 noundef %.015)
          to label %.noexc unwind label %28

.noexc:                                           ; preds = %18
  %22 = load ptr, ptr %3, align 8, !tbaa !660
  %23 = invoke noundef ptr @_ZNK6open3d4core15AdvancedIndexer12GetOutputPtrEl(ptr noundef nonnull align 8 dereferenceable(952) %22, i64 noundef %.015)
          to label %24 unwind label %28

24:                                               ; preds = %.noexc
  %.val.i = load ptr, ptr %19, align 8, !tbaa !661
  %.val.val.i = load i64, ptr %.val.i, align 8, !tbaa !9
  call void @llvm.memcpy.p0.p0.i64(ptr noundef nonnull align 1 %23, ptr noundef nonnull readonly align 1 %21, i64 noundef %.val.val.i, i1 noundef false) #25
  %25 = add nsw i64 %.015, 1
  %26 = load i64, ptr %6, align 8, !tbaa !9
  %.not.not = icmp slt i64 %.015, %26
  br i1 %.not.not, label %18, label %._crit_edge

._crit_edge:                                      ; preds = %24, %11
  call void @__kmpc_for_static_fini(ptr nonnull @1, i32 %13)
  call void @llvm.lifetime.end.p0(i64 4, ptr nonnull %8) #25
  call void @llvm.lifetime.end.p0(i64 8, ptr nonnull %7) #25
  call void @llvm.lifetime.end.p0(i64 8, ptr nonnull %6) #25
  call void @llvm.lifetime.end.p0(i64 8, ptr nonnull %5) #25
  br label %27

27:                                               ; preds = %._crit_edge, %4
  ret void

28:                                               ; preds = %.noexc, %18
  %29 = landingpad { ptr, i32 }
          catch ptr null
  %30 = extractvalue { ptr, i32 } %29, 0
  call void @__clang_call_terminate(ptr %30) #35
  unreachable
}